target datalayout = "e-m:e-p270:32:32-p271:32:32-p272:64:64-i64:64-i128:128-f80:128-n8:16:32:64-S128"
target triple = "x86_64-pc-linux-gnu"

%struct.ehooks_s = type { i32, %struct.atomic_p_t }
%struct.atomic_p_t = type { ptr }
%struct.edata_s = type { i64, ptr, %union.anon, ptr, i64, %union.anon.0, %union.anon.2 }
%union.anon = type { i64 }
%union.anon.0 = type { %union.anon.1 }
%union.anon.1 = type { %struct.edata_heap_link_t }
%struct.edata_heap_link_t = type { %struct.phn_link_s }
%struct.phn_link_s = type { ptr, ptr, ptr }
%union.anon.2 = type { %struct.slab_data_s }
%struct.slab_data_s = type { [8 x i64] }
%struct.base_s = type { %struct.ehooks_s, %struct.ehooks_s, %struct.malloc_mutex_s, i8, i32, i64, ptr, [235 x %struct.edata_heap_t], i64, i64, i64, i64 }
%struct.malloc_mutex_s = type { %union.anon.4 }
%union.anon.4 = type { %struct.anon.5 }
%struct.anon.5 = type { %struct.mutex_prof_data_t, %union.pthread_mutex_t, %struct.atomic_b_t }
%struct.mutex_prof_data_t = type { %struct.nstime_t, %struct.nstime_t, i64, i64, i32, %struct.atomic_u32_t, i64, ptr, i64 }
%struct.nstime_t = type { i64 }
%struct.atomic_u32_t = type { i32 }
%union.pthread_mutex_t = type { %struct.__pthread_mutex_s }
%struct.__pthread_mutex_s = type { i32, i32, i32, i32, i32, i16, i16, %struct.__pthread_internal_list }
%struct.__pthread_internal_list = type { ptr, ptr }
%struct.atomic_b_t = type { i8 }
%struct.edata_heap_t = type { %struct.ph_s }
%struct.ph_s = type { ptr, i64 }

@je_opt_metadata_thp = hidden global i32 0, align 4
@je_init_system_thp_mode = external global i32, align 4
@je_sz_size2index_tab = external global [0 x i8], align 1

; Function Attrs: inlinehint nounwind uwtable
define internal i32 @fls_lu(i64 noundef %0) #3 {
  %2 = alloca i64, align 8
  store i64 %0, ptr %2, align 8, !tbaa !17
  %3 = load i64, ptr %2, align 8, !tbaa !17
  %4 = icmp ne i64 %3, 0
  call void @util_assume(i1 noundef zeroext %4)
  %5 = load i64, ptr %2, align 8, !tbaa !17
  %6 = call i64 @llvm.ctlz.i64(i64 %5, i1 true)
  %7 = trunc i64 %6 to i32
  %8 = sext i32 %7 to i64
  %9 = xor i64 63, %8
  %10 = trunc i64 %9 to i32
  ret i32 %10
}

; Function Attrs: inlinehint nounwind uwtable
define internal i32 @fls_u64(i64 noundef %0) #3 {
  %2 = alloca i64, align 8
  store i64 %0, ptr %2, align 8, !tbaa !17
  %3 = load i64, ptr %2, align 8, !tbaa !17
  %4 = call i32 @fls_lu(i64 noundef %3)
  ret i32 %4
}

; Function Attrs: alwaysinline nounwind uwtable
define internal void @util_assume(i1 noundef zeroext %0) #4 {
  %2 = alloca i8, align 1
  %3 = zext i1 %0 to i8
  store i8 %3, ptr %2, align 1, !tbaa !15
  %4 = load i8, ptr %2, align 1, !tbaa !15, !range !19, !noundef !20
  %5 = trunc i8 %4 to i1
  br i1 %5, label %7, label %6

6:                                                ; preds = %1
  unreachable

7:                                                ; preds = %1
  ret void
}

; Function Attrs: inlinehint nounwind uwtable
define internal i32 @lg_floor(i64 noundef %0) #3 {
  %2 = alloca i64, align 8
  store i64 %0, ptr %2, align 8, !tbaa !17
  %3 = load i64, ptr %2, align 8, !tbaa !17
  %4 = icmp ne i64 %3, 0
  call void @util_assume(i1 noundef zeroext %4)
  %5 = load i64, ptr %2, align 8, !tbaa !17
  %6 = call i32 @fls_u64(i64 noundef %5)
  ret i32 %6
}

; Function Attrs: alwaysinline nounwind uwtable
define internal i32 @sz_size2index_lookup_impl(i64 noundef %0) #4 {
  %2 = alloca i64, align 8
  store i64 %0, ptr %2, align 8, !tbaa !17
  br label %3

3:                                                ; preds = %1
  br label %4

4:                                                ; preds = %3
  %5 = load i64, ptr %2, align 8, !tbaa !17
  %6 = add i64 %5, 8
  %7 = sub i64 %6, 1
  %8 = lshr i64 %7, 3
  %9 = getelementptr inbounds nuw [0 x i8], ptr @je_sz_size2index_tab, i64 0, i64 %8
  %10 = load i8, ptr %9, align 1, !tbaa !54
  %11 = zext i8 %10 to i32
  ret i32 %11
}

; Function Attrs: inlinehint nounwind uwtable
define internal zeroext i1 @metadata_thp_enabled() #3 {
  %1 = load i32, ptr @je_opt_metadata_thp, align 4, !tbaa !11
  %2 = icmp ne i32 %1, 0
  ret i1 %2
}

; Function Attrs: inlinehint nounwind uwtable
define internal i32 @sz_size2index_compute(i64 noundef %0) #3 {
  %2 = alloca i32, align 4
  %3 = alloca i64, align 8
  %4 = alloca i32, align 4
  %5 = alloca i32, align 4
  %6 = alloca i32, align 4
  %7 = alloca i32, align 4
  %8 = alloca i64, align 8
  %9 = alloca i32, align 4
  %10 = alloca i32, align 4
  store i64 %0, ptr %3, align 8, !tbaa !17
  %11 = load i64, ptr %3, align 8, !tbaa !17
  %12 = icmp ugt i64 %11, 8070450532247928832
  %13 = xor i1 %12, true
  %14 = xor i1 %13, true
  %15 = zext i1 %14 to i32
  %16 = sext i32 %15 to i64
  %17 = call i64 @llvm.expect.i64(i64 %16, i64 0)
  %18 = icmp ne i64 %17, 0
  br i1 %18, label %19, label %20

19:                                               ; preds = %1
  store i32 235, ptr %2, align 4
  br label %65

20:                                               ; preds = %1
  %21 = load i64, ptr %3, align 8, !tbaa !17
  %22 = icmp eq i64 %21, 0
  br i1 %22, label %23, label %24

23:                                               ; preds = %20
  store i32 0, ptr %2, align 4
  br label %65

24:                                               ; preds = %20
  call void @llvm.lifetime.start.p0(i64 4, ptr %4) #8
  %25 = load i64, ptr %3, align 8, !tbaa !17
  %26 = shl i64 %25, 1
  %27 = sub i64 %26, 1
  %28 = call i32 @lg_floor(i64 noundef %27)
  store i32 %28, ptr %4, align 4, !tbaa !11
  call void @llvm.lifetime.start.p0(i64 4, ptr %5) #8
  %29 = load i32, ptr %4, align 4, !tbaa !11
  %30 = icmp ult i32 %29, 5
  br i1 %30, label %31, label %32

31:                                               ; preds = %24
  br label %35

32:                                               ; preds = %24
  %33 = load i32, ptr %4, align 4, !tbaa !11
  %34 = sub i32 %33, 5
  br label %35

35:                                               ; preds = %32, %31
  %36 = phi i32 [ 0, %31 ], [ %34, %32 ]
  store i32 %36, ptr %5, align 4, !tbaa !11
  call void @llvm.lifetime.start.p0(i64 4, ptr %6) #8
  %37 = load i32, ptr %5, align 4, !tbaa !11
  %38 = shl i32 %37, 2
  store i32 %38, ptr %6, align 4, !tbaa !11
  call void @llvm.lifetime.start.p0(i64 4, ptr %7) #8
  %39 = load i32, ptr %4, align 4, !tbaa !11
  %40 = icmp ult i32 %39, 6
  br i1 %40, label %41, label %42

41:                                               ; preds = %35
  br label %46

42:                                               ; preds = %35
  %43 = load i32, ptr %4, align 4, !tbaa !11
  %44 = sub i32 %43, 2
  %45 = sub i32 %44, 1
  br label %46

46:                                               ; preds = %42, %41
  %47 = phi i32 [ 3, %41 ], [ %45, %42 ]
  store i32 %47, ptr %7, align 4, !tbaa !11
  call void @llvm.lifetime.start.p0(i64 8, ptr %8) #8
  %48 = load i32, ptr %7, align 4, !tbaa !11
  %49 = zext i32 %48 to i64
  %50 = shl i64 -1, %49
  store i64 %50, ptr %8, align 8, !tbaa !17
  call void @llvm.lifetime.start.p0(i64 4, ptr %9) #8
  %51 = load i64, ptr %3, align 8, !tbaa !17
  %52 = sub i64 %51, 1
  %53 = load i64, ptr %8, align 8, !tbaa !17
  %54 = and i64 %52, %53
  %55 = load i32, ptr %7, align 4, !tbaa !11
  %56 = zext i32 %55 to i64
  %57 = lshr i64 %54, %56
  %58 = and i64 %57, 3
  %59 = trunc i64 %58 to i32
  store i32 %59, ptr %9, align 4, !tbaa !11
  call void @llvm.lifetime.start.p0(i64 4, ptr %10) #8
  %60 = load i32, ptr %6, align 4, !tbaa !11
  %61 = add i32 0, %60
  %62 = load i32, ptr %9, align 4, !tbaa !11
  %63 = add i32 %61, %62
  store i32 %63, ptr %10, align 4, !tbaa !11
  %64 = load i32, ptr %10, align 4, !tbaa !11
  store i32 %64, ptr %2, align 4
  call void @llvm.lifetime.end.p0(i64 4, ptr %10) #8
  call void @llvm.lifetime.end.p0(i64 4, ptr %9) #8
  call void @llvm.lifetime.end.p0(i64 8, ptr %8) #8
  call void @llvm.lifetime.end.p0(i64 4, ptr %7) #8
  call void @llvm.lifetime.end.p0(i64 4, ptr %6) #8
  call void @llvm.lifetime.end.p0(i64 4, ptr %5) #8
  call void @llvm.lifetime.end.p0(i64 4, ptr %4) #8
  br label %65

65:                                               ; preds = %46, %23, %19
  %66 = load i32, ptr %2, align 4
  ret i32 %66
}

; Function Attrs: alwaysinline nounwind uwtable
define internal i32 @sz_size2index_lookup(i64 noundef %0) #4 {
  %2 = alloca i64, align 8
  %3 = alloca i32, align 4
  store i64 %0, ptr %2, align 8, !tbaa !17
  call void @llvm.lifetime.start.p0(i64 4, ptr %3) #8
  %4 = load i64, ptr %2, align 8, !tbaa !17
  %5 = call i32 @sz_size2index_lookup_impl(i64 noundef %4)
  store i32 %5, ptr %3, align 4, !tbaa !11
  br label %6

6:                                                ; preds = %1
  br label %7

7:                                                ; preds = %6
  br label %8

8:                                                ; preds = %7
  %9 = load i32, ptr %3, align 4, !tbaa !11
  call void @llvm.lifetime.end.p0(i64 4, ptr %3) #8
  ret i32 %9
}

; Function Attrs: inlinehint nounwind uwtable
define internal zeroext i1 @metadata_thp_madvise() #3 {
  %1 = call zeroext i1 @metadata_thp_enabled()
  br i1 %1, label %2, label %5

2:                                                ; preds = %0
  %3 = load i32, ptr @je_init_system_thp_mode, align 4, !tbaa !11
  %4 = icmp eq i32 %3, 0
  br label %5

5:                                                ; preds = %2, %0
  %6 = phi i1 [ false, %0 ], [ %4, %2 ]
  ret i1 %6
}

; Function Attrs: alwaysinline nounwind uwtable
define internal i32 @sz_size2index(i64 noundef %0) #4 {
  %2 = alloca i32, align 4
  %3 = alloca i64, align 8
  store i64 %0, ptr %3, align 8, !tbaa !17
  %4 = load i64, ptr %3, align 8, !tbaa !17
  %5 = icmp ule i64 %4, 4096
  %6 = xor i1 %5, true
  %7 = xor i1 %6, true
  %8 = zext i1 %7 to i32
  %9 = sext i32 %8 to i64
  %10 = call i64 @llvm.expect.i64(i64 %9, i64 1)
  %11 = icmp ne i64 %10, 0
  br i1 %11, label %12, label %15

12:                                               ; preds = %1
  %13 = load i64, ptr %3, align 8, !tbaa !17
  %14 = call i32 @sz_size2index_lookup(i64 noundef %13)
  store i32 %14, ptr %2, align 4
  br label %18

15:                                               ; preds = %1
  %16 = load i64, ptr %3, align 8, !tbaa !17
  %17 = call i32 @sz_size2index_compute(i64 noundef %16)
  store i32 %17, ptr %2, align 4
  br label %18

18:                                               ; preds = %15, %12
  %19 = load i32, ptr %2, align 4
  ret i32 %19
}

; Function Attrs: inlinehint nounwind uwtable
define internal i64 @edata_bsize_get(ptr noundef %0) #3 {
  %2 = alloca ptr, align 8
  store ptr %0, ptr %2, align 8, !tbaa !49
  %3 = load ptr, ptr %2, align 8, !tbaa !49
  %4 = getelementptr inbounds nuw %struct.edata_s, ptr %3, i32 0, i32 2
  %5 = load i64, ptr %4, align 8, !tbaa !54
  ret i64 %5
}

; Function Attrs: nounwind uwtable
define internal void @base_extent_bump_alloc_post(ptr noundef %0, ptr noundef %1, i64 noundef %2, ptr noundef %3, i64 noundef %4) #0 {
  %6 = alloca ptr, align 8
  %7 = alloca ptr, align 8
  %8 = alloca i64, align 8
  %9 = alloca ptr, align 8
  %10 = alloca i64, align 8
  %11 = alloca i32, align 4
  store ptr %0, ptr %6, align 8, !tbaa !4
  store ptr %1, ptr %7, align 8, !tbaa !49
  store i64 %2, ptr %8, align 8, !tbaa !17
  store ptr %3, ptr %9, align 8, !tbaa !47
  store i64 %4, ptr %10, align 8, !tbaa !17
  %12 = load ptr, ptr %7, align 8, !tbaa !49
  %13 = call i64 @edata_bsize_get(ptr noundef %12)
  %14 = icmp ugt i64 %13, 0
  br i1 %14, label %15, label %27

15:                                               ; preds = %5
  call void @llvm.lifetime.start.p0(i64 4, ptr %11) #8
  %16 = load ptr, ptr %7, align 8, !tbaa !49
  %17 = call i64 @edata_bsize_get(ptr noundef %16)
  %18 = add i64 %17, 1
  %19 = call i32 @sz_size2index(i64 noundef %18)
  %20 = sub i32 %19, 1
  store i32 %20, ptr %11, align 4, !tbaa !11
  %21 = load ptr, ptr %6, align 8, !tbaa !4
  %22 = getelementptr inbounds nuw %struct.base_s, ptr %21, i32 0, i32 7
  %23 = load i32, ptr %11, align 4, !tbaa !11
  %24 = zext i32 %23 to i64
  %25 = getelementptr inbounds nuw [235 x %struct.edata_heap_t], ptr %22, i64 0, i64 %24
  %26 = load ptr, ptr %7, align 8, !tbaa !49
  call void @je_edata_heap_insert(ptr noundef %25, ptr noundef %26)
  call void @llvm.lifetime.end.p0(i64 4, ptr %11) #8
  br label %27

27:                                               ; preds = %15, %5
  %28 = load i64, ptr %10, align 8, !tbaa !17
  %29 = load ptr, ptr %6, align 8, !tbaa !4
  %30 = getelementptr inbounds nuw %struct.base_s, ptr %29, i32 0, i32 8
  %31 = load i64, ptr %30, align 8, !tbaa !37
  %32 = add i64 %31, %28
  store i64 %32, ptr %30, align 8, !tbaa !37
  %33 = load ptr, ptr %9, align 8, !tbaa !47
  %34 = ptrtoint ptr %33 to i64
  %35 = load i64, ptr %10, align 8, !tbaa !17
  %36 = add i64 %34, %35
  %37 = add i64 %36, 4095
  %38 = and i64 %37, -4096
  %39 = load ptr, ptr %9, align 8, !tbaa !47
  %40 = ptrtoint ptr %39 to i64
  %41 = load i64, ptr %8, align 8, !tbaa !17
  %42 = sub i64 %40, %41
  %43 = add i64 %42, 4095
  %44 = and i64 %43, -4096
  %45 = sub i64 %38, %44
  %46 = load ptr, ptr %6, align 8, !tbaa !4
  %47 = getelementptr inbounds nuw %struct.base_s, ptr %46, i32 0, i32 9
  %48 = load i64, ptr %47, align 8, !tbaa !38
  %49 = add i64 %48, %45
  store i64 %49, ptr %47, align 8, !tbaa !38
  br label %50

50:                                               ; preds = %27
  br label %51

51:                                               ; preds = %50
  br label %52

52:                                               ; preds = %51
  br label %53

53:                                               ; preds = %52
  %54 = call zeroext i1 @metadata_thp_madvise()
  br i1 %54, label %55, label %84

55:                                               ; preds = %53
  %56 = load i32, ptr @je_opt_metadata_thp, align 4, !tbaa !11
  %57 = icmp eq i32 %56, 2
  br i1 %57, label %63, label %58

58:                                               ; preds = %55
  %59 = load ptr, ptr %6, align 8, !tbaa !4
  %60 = getelementptr inbounds nuw %struct.base_s, ptr %59, i32 0, i32 3
  %61 = load i8, ptr %60, align 8, !tbaa !34, !range !19, !noundef !20
  %62 = trunc i8 %61 to i1
  br i1 %62, label %63, label %84

63:                                               ; preds = %58, %55
  %64 = load ptr, ptr %9, align 8, !tbaa !47
  %65 = ptrtoint ptr %64 to i64
  %66 = load i64, ptr %10, align 8, !tbaa !17
  %67 = add i64 %65, %66
  %68 = add i64 %67, 2097151
  %69 = and i64 %68, -2097152
  %70 = load ptr, ptr %9, align 8, !tbaa !47
  %71 = ptrtoint ptr %70 to i64
  %72 = load i64, ptr %8, align 8, !tbaa !17
  %73 = sub i64 %71, %72
  %74 = add i64 %73, 2097151
  %75 = and i64 %74, -2097152
  %76 = sub i64 %69, %75
  %77 = lshr i64 %76, 21
  %78 = load ptr, ptr %6, align 8, !tbaa !4
  %79 = getelementptr inbounds nuw %struct.base_s, ptr %78, i32 0, i32 11
  %80 = load i64, ptr %79, align 8, !tbaa !40
  %81 = add i64 %80, %77
  store i64 %81, ptr %79, align 8, !tbaa !40
  br label %82

82:                                               ; preds = %63
  br label %83

83:                                               ; preds = %82
  br label %84

84:                                               ; preds = %83, %58, %53
  ret void
}