; Function Attrs: nounwind uwtable
define internal fastcc void @base_extent_bump_alloc_post(ptr noundef %0, ptr noundef nonnull %1, i64 noundef %2, ptr noundef %3, i64 noundef %4) unnamed_addr #1 {
  %6 = getelementptr i8, ptr %1, i64 16
  %.val = load i64, ptr %6, align 8, !tbaa !16
  %.not = icmp eq i64 %.val, 0
  br i1 %.not, label %33, label %7

7:                                                ; preds = %5
  %8 = add i64 %.val, 1
  %9 = icmp ult i64 %8, 4097
  br i1 %9, label %10, label %16, !prof !39

10:                                               ; preds = %7
  %11 = add nsw i64 %.val, 8
  %12 = lshr i64 %11, 3
  %13 = getelementptr inbounds nuw [0 x i8], ptr @je_sz_size2index_tab, i64 0, i64 %12
  %14 = load i8, ptr %13, align 1, !tbaa !16
  %15 = zext i8 %14 to i64
  br label %sz_size2index.exit

16:                                               ; preds = %7
  %17 = icmp ugt i64 %8, 8070450532247928832
  br i1 %17, label %sz_size2index.exit, label %18, !prof !36

18:                                               ; preds = %16
  %19 = shl nuw i64 %8, 1
  %20 = add i64 %19, -1
  %21 = tail call range(i64 0, 65) i64 @llvm.ctlz.i64(i64 range(i64 -1, -2305843009213693952) %20, i1 true)
  %22 = sub nuw nsw i64 60, %21
  %23 = shl nsw i64 -1, %22
  %24 = and i64 %23, %.val
  %25 = lshr i64 %24, %22
  %26 = and i64 %25, 3
  %27 = shl nuw nsw i64 %21, 2
  %reass.sub = sub nsw i64 %26, %27
  %28 = add nsw i64 %reass.sub, 232
  br label %sz_size2index.exit

sz_size2index.exit:                               ; preds = %18, %16, %10
  %.0.i = phi i64 [ %15, %10 ], [ %28, %18 ], [ 235, %16 ]
  %29 = add nuw nsw i64 %.0.i, 4294967295
  %30 = getelementptr inbounds nuw i8, ptr %0, i64 168
  %31 = and i64 %29, 4294967295
  %32 = getelementptr inbounds nuw [235 x %struct.edata_heap_t], ptr %30, i64 0, i64 %31
  tail call void @je_edata_heap_insert(ptr noundef nonnull %32, ptr noundef nonnull %1) #9
  br label %33

33:                                               ; preds = %sz_size2index.exit, %5
  %34 = getelementptr inbounds nuw i8, ptr %0, i64 3928
  %35 = load i64, ptr %34, align 8, !tbaa !30
  %36 = add i64 %35, %4
  store i64 %36, ptr %34, align 8, !tbaa !30
  %37 = ptrtoint ptr %3 to i64
  %38 = add i64 %4, %37
  %39 = add i64 %38, 4095
  %40 = and i64 %39, -4096
  %41 = sub i64 %37, %2
  %42 = add i64 %41, 4095
  %43 = and i64 %42, -4096
  %44 = sub i64 %40, %43
  %45 = getelementptr inbounds nuw i8, ptr %0, i64 3936
  %46 = load i64, ptr %45, align 8, !tbaa !31
  %47 = add i64 %44, %46
  store i64 %47, ptr %45, align 8, !tbaa !31
  %48 = load i32, ptr @je_opt_metadata_thp, align 4, !tbaa !9
  %49 = icmp ne i32 %48, 0
  %50 = load i32, ptr @je_init_system_thp_mode, align 4
  %51 = icmp eq i32 %50, 0
  %52 = select i1 %49, i1 %51, i1 false
  br i1 %52, label %53, label %68

53:                                               ; preds = %33
  %54 = icmp eq i32 %48, 2
  br i1 %54, label %59, label %55

55:                                               ; preds = %53
  %56 = getelementptr inbounds nuw i8, ptr %0, i64 144
  %57 = load i8, ptr %56, align 8, !tbaa !29, !range !49, !noundef !50
  %58 = trunc nuw i8 %57 to i1
  br i1 %58, label %59, label %68

59:                                               ; preds = %55, %53
  %60 = add i64 %38, 2097151
  %61 = add i64 %41, 2097151
  %62 = and i64 %61, -2097152
  %63 = sub i64 %60, %62
  %64 = lshr i64 %63, 21
  %65 = getelementptr inbounds nuw i8, ptr %0, i64 3952
  %66 = load i64, ptr %65, align 8, !tbaa !33
  %67 = add i64 %66, %64
  store i64 %67, ptr %65, align 8, !tbaa !33
  br label %68

68:                                               ; preds = %59, %55, %33
  ret void
}